; ModuleID = '45/454.c'
source_filename = "45/454.c"
target datalayout = "e-m:e-p270:32:32-p271:32:32-p272:64:64-i64:64-f80:128-n8:16:32:64-S128"
target triple = "x86_64-pc-linux-gnu"

@.str = private unnamed_addr constant [3 x i8] c"%s\00", align 1
@.str.1 = private unnamed_addr constant [3 x i8] c"%d\00", align 1

; Function Attrs: noinline nounwind uwtable
define dso_local void @main() #0 {
  %1 = alloca [50 x i8], align 16
  %2 = alloca [50 x i8], align 16
  %3 = alloca i8*, align 8
  %4 = alloca i8*, align 8
  %5 = alloca i8*, align 8
  %6 = alloca i8*, align 8
  %7 = alloca i32, align 4
  %8 = getelementptr inbounds [50 x i8], [50 x i8]* %1, i64 0, i64 0
  store i8* %8, i8** %5, align 8
  %9 = getelementptr inbounds [50 x i8], [50 x i8]* %2, i64 0, i64 0
  store i8* %9, i8** %6, align 8
  %10 = load i8*, i8** %5, align 8
  %11 = call i32 (i8*, ...) @__isoc99_scanf(i8* getelementptr inbounds ([3 x i8], [3 x i8]* @.str, i64 0, i64 0), i8* %10)
  %12 = load i8*, i8** %6, align 8
  %13 = call i32 (i8*, ...) @__isoc99_scanf(i8* getelementptr inbounds ([3 x i8], [3 x i8]* @.str, i64 0, i64 0), i8* %12)
  %14 = load i8*, i8** %6, align 8
  store i8* %14, i8** %4, align 8
  br label %15

15:                                               ; preds = %63, %0
  %16 = load i8*, i8** %4, align 8
  %17 = getelementptr inbounds i8, i8* %16, i32 1
  store i8* %17, i8** %4, align 8
  %18 = load i8, i8* %16, align 1
  %19 = sext i8 %18 to i32
  %20 = icmp ne i32 %19, 0
  br i1 %20, label %21, label %64

21:                                               ; preds = %15
  %22 = load i8*, i8** %4, align 8
  %23 = load i8, i8* %22, align 1
  %24 = sext i8 %23 to i32
  %25 = load i8*, i8** %5, align 8
  %26 = load i8, i8* %25, align 1
  %27 = sext i8 %26 to i32
  %28 = icmp eq i32 %24, %27
  br i1 %28, label %29, label %63

29:                                               ; preds = %21
  store i32 1, i32* %7, align 4
  %30 = load i8*, i8** %4, align 8
  store i8* %30, i8** %3, align 8
  br label %31

31:                                               ; preds = %45, %29
  %32 = load i8*, i8** %5, align 8
  %33 = load i8, i8* %32, align 1
  %34 = sext i8 %33 to i32
  %35 = icmp ne i32 %34, 0
  br i1 %35, label %36, label %50

36:                                               ; preds = %31
  %37 = load i8*, i8** %4, align 8
  %38 = load i8, i8* %37, align 1
  %39 = sext i8 %38 to i32
  %40 = load i8*, i8** %5, align 8
  %41 = load i8, i8* %40, align 1
  %42 = sext i8 %41 to i32
  %43 = icmp ne i32 %39, %42
  br i1 %43, label %44, label %45

44:                                               ; preds = %36
  store i32 0, i32* %7, align 4
  br label %50

45:                                               ; preds = %36
  %46 = load i8*, i8** %5, align 8
  %47 = getelementptr inbounds i8, i8* %46, i32 1
  store i8* %47, i8** %5, align 8
  %48 = load i8*, i8** %4, align 8
  %49 = getelementptr inbounds i8, i8* %48, i32 1
  store i8* %49, i8** %4, align 8
  br label %31

50:                                               ; preds = %44, %31
  %51 = load i32, i32* %7, align 4
  %52 = icmp ne i32 %51, 0
  br i1 %52, label %53, label %60

53:                                               ; preds = %50
  %54 = load i8*, i8** %3, align 8
  %55 = load i8*, i8** %6, align 8
  %56 = ptrtoint i8* %54 to i64
  %57 = ptrtoint i8* %55 to i64
  %58 = sub i64 %56, %57
  %59 = call i32 (i8*, ...) @printf(i8* getelementptr inbounds ([3 x i8], [3 x i8]* @.str.1, i64 0, i64 0), i64 %58)
  br label %64

60:                                               ; preds = %50
  %61 = load i8*, i8** %3, align 8
  store i8* %61, i8** %4, align 8
  %62 = getelementptr inbounds [50 x i8], [50 x i8]* %1, i64 0, i64 0
  store i8* %62, i8** %5, align 8
  br label %63

63:                                               ; preds = %60, %21
  br label %15

64:                                               ; preds = %53, %15
  ret void
}

declare dso_local i32 @__isoc99_scanf(i8*, ...) #1

declare dso_local i32 @printf(i8*, ...) #1


!llvm.module.flags = !{!0}
!llvm.ident = !{!1}

!0 = !{i32 1, !"wchar_size", i32 4}
!1 = !{!"clang version 10.0.0-4ubuntu1 "}
