; ModuleID = 'source-C-CXX/44/454.c'
source_filename = "source-C-CXX/44/454.c"
target datalayout = "e-m:e-p270:32:32-p271:32:32-p272:64:64-i64:64-f80:128-n8:16:32:64-S128"
target triple = "x86_64-pc-linux-gnu"

@.str = private unnamed_addr constant [3 x i8] c"%s\00", align 1
@.str.1 = private unnamed_addr constant [3 x i8] c"%d\00", align 1

; Function Attrs: nofree nounwind sspstrong uwtable
define dso_local void @main() local_unnamed_addr #0 {
  %1 = alloca [50 x i8], align 16
  %2 = alloca [50 x i8], align 16
  %3 = getelementptr inbounds [50 x i8], [50 x i8]* %1, i64 0, i64 0
  call void @llvm.lifetime.start.p0i8(i64 50, i8* nonnull %3) #3
  %4 = getelementptr inbounds [50 x i8], [50 x i8]* %2, i64 0, i64 0
  call void @llvm.lifetime.start.p0i8(i64 50, i8* nonnull %4) #3
  %5 = call i32 (i8*, ...) @__isoc99_scanf(i8* getelementptr inbounds ([3 x i8], [3 x i8]* @.str, i64 0, i64 0), i8* nonnull %3)
  %6 = call i32 (i8*, ...) @__isoc99_scanf(i8* getelementptr inbounds ([3 x i8], [3 x i8]* @.str, i64 0, i64 0), i8* nonnull %4)
  %7 = load i8, i8* %3, align 16
  %8 = getelementptr inbounds [50 x i8], [50 x i8]* %2, i64 0, i64 1
  %9 = load i8, i8* %4, align 16, !tbaa !5
  %10 = icmp eq i8 %9, 0
  br i1 %10, label %41, label %11

11:                                               ; preds = %0
  %12 = icmp eq i8 %7, 0
  br i1 %12, label %13, label %18

13:                                               ; preds = %11, %13
  %14 = phi i8* [ %17, %13 ], [ %8, %11 ]
  %15 = load i8, i8* %14, align 1, !tbaa !5
  %16 = icmp eq i8 %15, 0
  %17 = getelementptr inbounds i8, i8* %14, i64 1
  br i1 %16, label %32, label %13, !llvm.loop !8

18:                                               ; preds = %11, %38
  %19 = phi i8* [ %39, %38 ], [ %8, %11 ]
  %20 = load i8, i8* %19, align 1, !tbaa !5
  %21 = icmp eq i8 %20, %7
  br i1 %21, label %22, label %38

22:                                               ; preds = %18, %29
  %23 = phi i8* [ %25, %29 ], [ %3, %18 ]
  %24 = phi i8* [ %26, %29 ], [ %19, %18 ]
  %25 = getelementptr inbounds i8, i8* %23, i64 1
  %26 = getelementptr inbounds i8, i8* %24, i64 1
  %27 = load i8, i8* %25, align 1, !tbaa !5
  %28 = icmp eq i8 %27, 0
  br i1 %28, label %32, label %29, !llvm.loop !10

29:                                               ; preds = %22
  %30 = load i8, i8* %26, align 1, !tbaa !5
  %31 = icmp eq i8 %30, %27
  br i1 %31, label %22, label %38

32:                                               ; preds = %22, %13
  %33 = phi i8* [ %14, %13 ], [ %19, %22 ]
  %34 = ptrtoint i8* %33 to i64
  %35 = ptrtoint [50 x i8]* %2 to i64
  %36 = sub i64 %34, %35
  %37 = call i32 (i8*, ...) @printf(i8* nonnull dereferenceable(1) getelementptr inbounds ([3 x i8], [3 x i8]* @.str.1, i64 0, i64 0), i64 %36)
  br label %41

38:                                               ; preds = %29, %18
  %39 = getelementptr inbounds i8, i8* %19, i64 1
  %40 = icmp eq i8 %20, 0
  br i1 %40, label %41, label %18, !llvm.loop !8

41:                                               ; preds = %38, %0, %32
  call void @llvm.lifetime.end.p0i8(i64 50, i8* nonnull %4) #3
  call void @llvm.lifetime.end.p0i8(i64 50, i8* nonnull %3) #3
  ret void
}

; Function Attrs: argmemonly mustprogress nofree nosync nounwind willreturn
declare void @llvm.lifetime.start.p0i8(i64 immarg, i8* nocapture) #1

; Function Attrs: nofree nounwind
declare noundef i32 @__isoc99_scanf(i8* nocapture noundef readonly, ...) local_unnamed_addr #2

; Function Attrs: nofree nounwind
declare noundef i32 @printf(i8* nocapture noundef readonly, ...) local_unnamed_addr #2

; Function Attrs: argmemonly mustprogress nofree nosync nounwind willreturn
declare void @llvm.lifetime.end.p0i8(i64 immarg, i8* nocapture) #1


!llvm.module.flags = !{!0, !1, !2, !3}
!llvm.ident = !{!4}

!0 = !{i32 1, !"wchar_size", i32 4}
!1 = !{i32 7, !"PIC Level", i32 2}
!2 = !{i32 7, !"PIE Level", i32 2}
!3 = !{i32 7, !"uwtable", i32 1}
!4 = !{!"clang version 13.0.0"}
!5 = !{!6, !6, i64 0}
!6 = !{!"omnipotent char", !7, i64 0}
!7 = !{!"Simple C/C++ TBAA"}
!8 = distinct !{!8, !9}
!9 = !{!"llvm.loop.mustprogress"}
!10 = distinct !{!10, !9}
